; Function Attrs: nounwind uwtable
define internal void @zend_extension_op_array_ctor_handler(ptr noundef readonly captures(none) %0, ptr noundef %1) #0 {
  %3 = getelementptr inbounds nuw i8, ptr %0, i64 112
  %4 = load ptr, ptr %3, align 8, !tbaa !38
  %.not = icmp eq ptr %4, null
  br i1 %.not, label %6, label %5

5:                                                ; preds = %2
  tail call void %4(ptr noundef %1) #14
  br label %6

6:                                                ; preds = %5, %2
  ret void
}